target datalayout = "e-m:e-p270:32:32-p271:32:32-p272:64:64-i64:64-i128:128-f80:128-n8:16:32:64-S128"
target triple = "x86_64-pc-linux-gnu"

%struct._object = type { %union.anon, ptr }
%union.anon = type { i64 }
%struct.fileio = type { %struct._object, i32, i8, i8, ptr, ptr, ptr }

@PyExc_OSError = external global ptr, align 8

; Function Attrs: nounwind uwtable
define internal ptr @portable_lseek(ptr noundef %0, ptr noundef %1, i32 noundef %2, i1 noundef zeroext %3) #0 {
  %5 = alloca ptr, align 8
  %6 = alloca ptr, align 8
  %7 = alloca ptr, align 8
  %8 = alloca i32, align 4
  %9 = alloca i8, align 1
  %10 = alloca i64, align 8
  %11 = alloca i64, align 8
  %12 = alloca i32, align 4
  %13 = alloca i32, align 4
  %14 = alloca ptr, align 8
  store ptr %0, ptr %6, align 8, !tbaa !15
  store ptr %1, ptr %7, align 8, !tbaa !4
  store i32 %2, ptr %8, align 4, !tbaa !31
  %15 = zext i1 %3 to i8
  store i8 %15, ptr %9, align 1, !tbaa !72
  call void @llvm.lifetime.start.p0(i64 8, ptr %10) #9
  call void @llvm.lifetime.start.p0(i64 8, ptr %11) #9
  call void @llvm.lifetime.start.p0(i64 4, ptr %12) #9
  %16 = load ptr, ptr %6, align 8, !tbaa !15
  %17 = getelementptr inbounds nuw %struct.fileio, ptr %16, i32 0, i32 1
  %18 = load i32, ptr %17, align 8, !tbaa !9
  store i32 %18, ptr %12, align 4, !tbaa !31
  %19 = load i32, ptr %8, align 4, !tbaa !31
  switch i32 %19, label %20 [
  ]

20:                                               ; preds = %4
  %21 = load ptr, ptr %7, align 8, !tbaa !4
  %22 = icmp eq ptr %21, null
  br i1 %22, label %23, label %24

23:                                               ; preds = %20
  store i64 0, ptr %10, align 8, !tbaa !35
  br label %31

24:                                               ; preds = %20
  %25 = load ptr, ptr %7, align 8, !tbaa !4
  %26 = call i64 @PyLong_AsLong(ptr noundef %25)
  store i64 %26, ptr %10, align 8, !tbaa !35
  %27 = call ptr @PyErr_Occurred()
  %28 = icmp ne ptr %27, null
  br i1 %28, label %29, label %30

29:                                               ; preds = %24
  store ptr null, ptr %5, align 8
  store i32 1, ptr %13, align 4
  br label %75

30:                                               ; preds = %24
  br label %31

31:                                               ; preds = %30, %23
  call void @llvm.lifetime.start.p0(i64 8, ptr %14) #9
  %32 = call ptr @PyEval_SaveThread()
  store ptr %32, ptr %14, align 8, !tbaa !53
  %33 = load i32, ptr %12, align 4, !tbaa !31
  %34 = load i64, ptr %10, align 8, !tbaa !35
  %35 = load i32, ptr %8, align 4, !tbaa !31
  %36 = call i64 @lseek64(i32 noundef %33, i64 noundef %34, i32 noundef %35) #9
  store i64 %36, ptr %11, align 8, !tbaa !35
  %37 = load ptr, ptr %14, align 8, !tbaa !53
  call void @PyEval_RestoreThread(ptr noundef %37)
  call void @llvm.lifetime.end.p0(i64 8, ptr %14) #9
  %38 = load ptr, ptr %6, align 8, !tbaa !15
  %39 = getelementptr inbounds nuw %struct.fileio, ptr %38, i32 0, i32 2
  %40 = load i8, ptr %39, align 4
  %41 = shl i8 %40, 2
  %42 = ashr i8 %41, 6
  %43 = sext i8 %42 to i32
  %44 = icmp slt i32 %43, 0
  br i1 %44, label %45, label %57

45:                                               ; preds = %31
  %46 = load i64, ptr %11, align 8, !tbaa !35
  %47 = icmp sge i64 %46, 0
  %48 = zext i1 %47 to i32
  %49 = load ptr, ptr %6, align 8, !tbaa !15
  %50 = getelementptr inbounds nuw %struct.fileio, ptr %49, i32 0, i32 2
  %51 = trunc i32 %48 to i8
  %52 = load i8, ptr %50, align 4
  %53 = and i8 %51, 3
  %54 = shl i8 %53, 4
  %55 = and i8 %52, -49
  %56 = or i8 %55, %54
  store i8 %56, ptr %50, align 4
  br label %57

57:                                               ; preds = %45, %31
  %58 = load i64, ptr %11, align 8, !tbaa !35
  %59 = icmp slt i64 %58, 0
  br i1 %59, label %60, label %72

60:                                               ; preds = %57
  %61 = load i8, ptr %9, align 1, !tbaa !72, !range !74, !noundef !75
  %62 = trunc i8 %61 to i1
  br i1 %62, label %63, label %68

63:                                               ; preds = %60
  %64 = call ptr @__errno_location() #11
  %65 = load i32, ptr %64, align 4, !tbaa !31
  %66 = icmp eq i32 %65, 29
  br i1 %66, label %67, label %68

67:                                               ; preds = %63
  store i64 0, ptr %11, align 8, !tbaa !35
  br label %71

68:                                               ; preds = %63, %60
  %69 = load ptr, ptr @PyExc_OSError, align 8, !tbaa !4
  %70 = call ptr @PyErr_SetFromErrno(ptr noundef %69)
  store ptr %70, ptr %5, align 8
  store i32 1, ptr %13, align 4
  br label %75

71:                                               ; preds = %67
  br label %72

72:                                               ; preds = %71, %57
  %73 = load i64, ptr %11, align 8, !tbaa !35
  %74 = call ptr @PyLong_FromLong(i64 noundef %73)
  store ptr %74, ptr %5, align 8
  store i32 1, ptr %13, align 4
  br label %75

75:                                               ; preds = %72, %68, %29
  call void @llvm.lifetime.end.p0(i64 4, ptr %12) #9
  call void @llvm.lifetime.end.p0(i64 8, ptr %11) #9
  call void @llvm.lifetime.end.p0(i64 8, ptr %10) #9
  %76 = load ptr, ptr %5, align 8
  ret ptr %76
}