; Function Attrs: nounwind uwtable
define internal fastcc ptr @portable_lseek(ptr noundef captures(none) %0, ptr noundef %1, i32 noundef %2, i1 noundef zeroext %3) unnamed_addr #1 {
  %5 = getelementptr inbounds nuw i8, ptr %0, i64 16
  %6 = load i32, ptr %5, align 8, !tbaa !4
  %7 = icmp eq ptr %1, null
  br i1 %7, label %11, label %8

8:                                                ; preds = %4
  %9 = tail call i64 @PyLong_AsLong(ptr noundef nonnull %1) #10
  %10 = tail call ptr @PyErr_Occurred() #10
  %.not = icmp eq ptr %10, null
  br i1 %.not, label %11, label %33

11:                                               ; preds = %4, %8
  %.013 = phi i64 [ %9, %8 ], [ 0, %4 ]
  %12 = tail call ptr @PyEval_SaveThread() #10
  %13 = tail call i64 @lseek64(i32 noundef %6, i64 noundef %.013, i32 noundef %2) #10
  tail call void @PyEval_RestoreThread(ptr noundef %12) #10
  %14 = getelementptr inbounds nuw i8, ptr %0, i64 20
  %15 = load i8, ptr %14, align 4
  %.mask = and i8 %15, 32
  %.not17 = icmp eq i8 %.mask, 0
  br i1 %.not17, label %21, label %16

16:                                               ; preds = %11
  %17 = icmp sgt i64 %13, -1
  %18 = select i1 %17, i8 16, i8 0
  %19 = and i8 %15, -49
  %20 = or disjoint i8 %19, %18
  store i8 %20, ptr %14, align 4
  br label %21

21:                                               ; preds = %16, %11
  %22 = icmp slt i64 %13, 0
  br i1 %22, label %23, label %31

23:                                               ; preds = %21
  br i1 %3, label %24, label %28

24:                                               ; preds = %23
  %25 = tail call ptr @__errno_location() #12
  %26 = load i32, ptr %25, align 4, !tbaa !43
  %27 = icmp eq i32 %26, 29
  br i1 %27, label %31, label %28

28:                                               ; preds = %24, %23
  %29 = load ptr, ptr @PyExc_OSError, align 8, !tbaa !21
  %30 = tail call ptr @PyErr_SetFromErrno(ptr noundef %29) #10
  br label %33

31:                                               ; preds = %24, %21
  %.014 = phi i64 [ %13, %21 ], [ 0, %24 ]
  %32 = tail call ptr @PyLong_FromLong(i64 noundef %.014) #10
  br label %33

33:                                               ; preds = %8, %31, %28
  %.0 = phi ptr [ %32, %31 ], [ %30, %28 ], [ null, %8 ]
  ret ptr %.0
}